; ModuleID = '43/1737.c'
source_filename = "43/1737.c"
target datalayout = "e-m:e-p270:32:32-p271:32:32-p272:64:64-i64:64-f80:128-n8:16:32:64-S128"
target triple = "x86_64-pc-linux-gnu"

@.str = private unnamed_addr constant [3 x i8] c"%d\00", align 1
@.str.1 = private unnamed_addr constant [7 x i8] c"%d %d\0A\00", align 1

; Function Attrs: noinline nounwind uwtable
define dso_local void @main() #0 {
  %1 = alloca i32, align 4
  %2 = alloca i32, align 4
  %3 = alloca i32, align 4
  %4 = alloca i32, align 4
  %5 = alloca i32, align 4
  %6 = alloca i32, align 4
  %7 = alloca i32, align 4
  %8 = call i32 (i8*, ...) @__isoc99_scanf(i8* getelementptr inbounds ([3 x i8], [3 x i8]* @.str, i64 0, i64 0), i32* %1)
  store i32 3, i32* %2, align 4
  br label %9

9:                                                ; preds = %58, %0
  %10 = load i32, i32* %2, align 4
  %11 = load i32, i32* %1, align 4
  %12 = sdiv i32 %11, 2
  %13 = icmp sle i32 %10, %12
  br i1 %13, label %14, label %61

14:                                               ; preds = %9
  store i32 1, i32* %7, align 4
  %15 = load i32, i32* %2, align 4
  store i32 %15, i32* %3, align 4
  %16 = load i32, i32* %1, align 4
  %17 = load i32, i32* %2, align 4
  %18 = sub nsw i32 %16, %17
  store i32 %18, i32* %6, align 4
  store i32 2, i32* %4, align 4
  br label %19

19:                                               ; preds = %31, %14
  %20 = load i32, i32* %4, align 4
  %21 = load i32, i32* %3, align 4
  %22 = sdiv i32 %21, 2
  %23 = icmp sle i32 %20, %22
  br i1 %23, label %24, label %34

24:                                               ; preds = %19
  %25 = load i32, i32* %3, align 4
  %26 = load i32, i32* %4, align 4
  %27 = srem i32 %25, %26
  %28 = icmp eq i32 %27, 0
  br i1 %28, label %29, label %30

29:                                               ; preds = %24
  store i32 0, i32* %7, align 4
  br label %34

30:                                               ; preds = %24
  br label %31

31:                                               ; preds = %30
  %32 = load i32, i32* %4, align 4
  %33 = add nsw i32 %32, 1
  store i32 %33, i32* %4, align 4
  br label %19

34:                                               ; preds = %29, %19
  store i32 2, i32* %5, align 4
  br label %35

35:                                               ; preds = %47, %34
  %36 = load i32, i32* %5, align 4
  %37 = load i32, i32* %6, align 4
  %38 = sdiv i32 %37, 2
  %39 = icmp sle i32 %36, %38
  br i1 %39, label %40, label %50

40:                                               ; preds = %35
  %41 = load i32, i32* %6, align 4
  %42 = load i32, i32* %5, align 4
  %43 = srem i32 %41, %42
  %44 = icmp eq i32 %43, 0
  br i1 %44, label %45, label %46

45:                                               ; preds = %40
  store i32 0, i32* %7, align 4
  br label %50

46:                                               ; preds = %40
  br label %47

47:                                               ; preds = %46
  %48 = load i32, i32* %5, align 4
  %49 = add nsw i32 %48, 1
  store i32 %49, i32* %5, align 4
  br label %35

50:                                               ; preds = %45, %35
  %51 = load i32, i32* %7, align 4
  %52 = icmp ne i32 %51, 0
  br i1 %52, label %53, label %57

53:                                               ; preds = %50
  %54 = load i32, i32* %3, align 4
  %55 = load i32, i32* %6, align 4
  %56 = call i32 (i8*, ...) @printf(i8* getelementptr inbounds ([7 x i8], [7 x i8]* @.str.1, i64 0, i64 0), i32 %54, i32 %55)
  br label %57

57:                                               ; preds = %53, %50
  br label %58

58:                                               ; preds = %57
  %59 = load i32, i32* %2, align 4
  %60 = add nsw i32 %59, 1
  store i32 %60, i32* %2, align 4
  br label %9

61:                                               ; preds = %9
  ret void
}

declare dso_local i32 @__isoc99_scanf(i8*, ...) #1

declare dso_local i32 @printf(i8*, ...) #1


!llvm.module.flags = !{!0}
!llvm.ident = !{!1}

!0 = !{i32 1, !"wchar_size", i32 4}
!1 = !{!"clang version 10.0.0-4ubuntu1 "}
